target datalayout = "e-m:e-p270:32:32-p271:32:32-p272:64:64-i64:64-i128:128-f80:128-n8:16:32:64-S128"
target triple = "x86_64-pc-linux-gnu"

%struct.HashValue = type { i32, %union.anon }
%union.anon = type { i32, [28 x i8] }
%class.DataHash = type { i32, i32, ptr }
%struct.blake2sp_state = type { [8 x %struct.blake2s_state], %struct.blake2s_state, [512 x i8], i64 }
%struct.blake2s_state = type <{ [240 x i8], ptr, ptr, ptr, ptr, i64, i8, [7 x i8] }>

; Function Attrs: mustprogress nounwind uwtable
define linkonce_odr noundef nonnull align 8 dereferenceable(281) ptr @_ZN13blake2s_stateaSERS_(ptr noundef nonnull align 8 dereferenceable(281) %0, ptr noundef nonnull align 8 dereferenceable(281) %1) #0 comdat align 2 {
  %3 = alloca ptr, align 8
  %4 = alloca ptr, align 8
  store ptr %0, ptr %3, align 8
  store ptr %1, ptr %4, align 8
  %5 = load ptr, ptr %3, align 8
  %6 = load ptr, ptr %4, align 8
  %7 = icmp ne ptr %5, %6
  br i1 %7, label %8, label %22

8:                                                ; preds = %2
  %9 = getelementptr inbounds %struct.blake2s_state, ptr %5, i32 0, i32 1
  %10 = load ptr, ptr %9, align 8
  %11 = load ptr, ptr %4, align 8
  %12 = getelementptr inbounds %struct.blake2s_state, ptr %11, i32 0, i32 1
  %13 = load ptr, ptr %12, align 8
  call void @llvm.memcpy.p0.p0.i64(ptr align 1 %10, ptr align 1 %13, i64 176, i1 false)
  %14 = load ptr, ptr %4, align 8
  %15 = getelementptr inbounds %struct.blake2s_state, ptr %14, i32 0, i32 5
  %16 = load i64, ptr %15, align 8
  %17 = getelementptr inbounds %struct.blake2s_state, ptr %5, i32 0, i32 5
  store i64 %16, ptr %17, align 8
  %18 = load ptr, ptr %4, align 8
  %19 = getelementptr inbounds %struct.blake2s_state, ptr %18, i32 0, i32 6
  %20 = load i8, ptr %19, align 8
  %21 = getelementptr inbounds %struct.blake2s_state, ptr %5, i32 0, i32 6
  store i8 %20, ptr %21, align 8
  br label %22

22:                                               ; preds = %8, %2
  ret ptr %5
}

; Function Attrs: mustprogress nounwind uwtable
define linkonce_odr void @_ZN13blake2s_state12set_pointersEv(ptr noundef nonnull align 8 dereferenceable(281) %0) #0 comdat align 2 {
  %2 = alloca ptr, align 8
  store ptr %0, ptr %2, align 8
  %3 = load ptr, ptr %2, align 8
  %4 = getelementptr inbounds %struct.blake2s_state, ptr %3, i32 0, i32 0
  %5 = getelementptr inbounds [240 x i8], ptr %4, i64 0, i64 0
  %6 = ptrtoint ptr %5 to i64
  %7 = getelementptr inbounds %struct.blake2s_state, ptr %3, i32 0, i32 0
  %8 = getelementptr inbounds [240 x i8], ptr %7, i64 0, i64 0
  %9 = ptrtoint ptr %8 to i64
  %10 = xor i64 %9, -1
  %11 = add i64 %10, 1
  %12 = and i64 %11, 63
  %13 = add i64 %6, %12
  %14 = inttoptr i64 %13 to ptr
  %15 = getelementptr inbounds %struct.blake2s_state, ptr %3, i32 0, i32 1
  store ptr %14, ptr %15, align 8
  %16 = getelementptr inbounds %struct.blake2s_state, ptr %3, i32 0, i32 1
  %17 = load ptr, ptr %16, align 8
  %18 = getelementptr inbounds i8, ptr %17, i64 128
  %19 = getelementptr inbounds %struct.blake2s_state, ptr %3, i32 0, i32 2
  store ptr %18, ptr %19, align 8
  %20 = getelementptr inbounds %struct.blake2s_state, ptr %3, i32 0, i32 2
  %21 = load ptr, ptr %20, align 8
  %22 = getelementptr inbounds i32, ptr %21, i64 8
  %23 = getelementptr inbounds %struct.blake2s_state, ptr %3, i32 0, i32 3
  store ptr %22, ptr %23, align 8
  %24 = getelementptr inbounds %struct.blake2s_state, ptr %3, i32 0, i32 3
  %25 = load ptr, ptr %24, align 8
  %26 = getelementptr inbounds i32, ptr %25, i64 2
  %27 = getelementptr inbounds %struct.blake2s_state, ptr %3, i32 0, i32 4
  store ptr %26, ptr %27, align 8
  ret void
}

; Function Attrs: mustprogress uwtable
define linkonce_odr void @_ZN13blake2s_stateC2ERS_(ptr noundef nonnull align 8 dereferenceable(281) %0, ptr noundef nonnull align 8 dereferenceable(281) %1) unnamed_addr #6 comdat align 2 {
  %3 = alloca ptr, align 8
  %4 = alloca ptr, align 8
  store ptr %0, ptr %3, align 8
  store ptr %1, ptr %4, align 8
  %5 = load ptr, ptr %3, align 8
  call void @_ZN13blake2s_state12set_pointersEv(ptr noundef nonnull align 8 dereferenceable(281) %5)
  %6 = load ptr, ptr %4, align 8
  %7 = call noundef nonnull align 8 dereferenceable(281) ptr @_ZN13blake2s_stateaSERS_(ptr noundef nonnull align 8 dereferenceable(281) %5, ptr noundef nonnull align 8 dereferenceable(281) %6)
  ret void
}

; Function Attrs: mustprogress uwtable
define linkonce_odr void @_ZN14blake2sp_stateC2ERS_(ptr noundef nonnull align 8 dereferenceable(3112) %0, ptr noundef nonnull align 8 dereferenceable(3112) %1) unnamed_addr #6 comdat align 2 {
  %3 = alloca ptr, align 8
  %4 = alloca ptr, align 8
  store ptr %0, ptr %3, align 8
  store ptr %1, ptr %4, align 8
  %5 = load ptr, ptr %3, align 8
  %6 = getelementptr inbounds %struct.blake2sp_state, ptr %5, i32 0, i32 0
  %7 = load ptr, ptr %4, align 8
  %8 = getelementptr inbounds %struct.blake2sp_state, ptr %7, i32 0, i32 0
  %9 = getelementptr inbounds [8 x %struct.blake2s_state], ptr %6, i64 0, i64 0
  br label %10

10:                                               ; preds = %10, %2
  %11 = phi i64 [ 0, %2 ], [ %14, %10 ]
  %12 = getelementptr inbounds %struct.blake2s_state, ptr %9, i64 %11
  %13 = getelementptr inbounds [8 x %struct.blake2s_state], ptr %8, i64 0, i64 %11
  call void @_ZN13blake2s_stateC2ERS_(ptr noundef nonnull align 8 dereferenceable(281) %12, ptr noundef nonnull align 8 dereferenceable(281) %13)
  %14 = add nuw i64 %11, 1
  %15 = icmp eq i64 %14, 8
  br i1 %15, label %16, label %10

16:                                               ; preds = %10
  %17 = getelementptr inbounds %struct.blake2sp_state, ptr %5, i32 0, i32 1
  %18 = load ptr, ptr %4, align 8
  %19 = getelementptr inbounds %struct.blake2sp_state, ptr %18, i32 0, i32 1
  call void @_ZN13blake2s_stateC2ERS_(ptr noundef nonnull align 8 dereferenceable(281) %17, ptr noundef nonnull align 8 dereferenceable(281) %19)
  %20 = getelementptr inbounds %struct.blake2sp_state, ptr %5, i32 0, i32 2
  %21 = load ptr, ptr %4, align 8
  %22 = getelementptr inbounds %struct.blake2sp_state, ptr %21, i32 0, i32 2
  call void @llvm.memcpy.p0.p0.i64(ptr align 8 %20, ptr align 8 %22, i64 520, i1 false)
  ret void
}

; Function Attrs: mustprogress uwtable
define void @_ZN8DataHash6ResultEP9HashValue(ptr noundef nonnull align 8 dereferenceable(16) %0, ptr noundef %1) #6 align 2 {
  %3 = alloca ptr, align 8
  %4 = alloca ptr, align 8
  %5 = alloca %struct.blake2sp_state, align 8
  store ptr %0, ptr %3, align 8
  store ptr %1, ptr %4, align 8
  %6 = load ptr, ptr %3, align 8
  %7 = getelementptr inbounds %class.DataHash, ptr %6, i32 0, i32 0
  %8 = load i32, ptr %7, align 8
  %9 = load ptr, ptr %4, align 8
  %10 = getelementptr inbounds %struct.HashValue, ptr %9, i32 0, i32 0
  store i32 %8, ptr %10, align 4
  %11 = getelementptr inbounds %class.DataHash, ptr %6, i32 0, i32 0
  %12 = load i32, ptr %11, align 8
  %13 = icmp eq i32 %12, 1
  br i1 %13, label %14, label %19

14:                                               ; preds = %2
  %15 = getelementptr inbounds %class.DataHash, ptr %6, i32 0, i32 1
  %16 = load i32, ptr %15, align 4
  %17 = load ptr, ptr %4, align 8
  %18 = getelementptr inbounds %struct.HashValue, ptr %17, i32 0, i32 1
  store i32 %16, ptr %18, align 4
  br label %19

19:                                               ; preds = %14, %2
  %20 = getelementptr inbounds %class.DataHash, ptr %6, i32 0, i32 0
  %21 = load i32, ptr %20, align 8
  %22 = icmp eq i32 %21, 2
  br i1 %22, label %23, label %29

23:                                               ; preds = %19
  %24 = getelementptr inbounds %class.DataHash, ptr %6, i32 0, i32 1
  %25 = load i32, ptr %24, align 4
  %26 = xor i32 %25, -1
  %27 = load ptr, ptr %4, align 8
  %28 = getelementptr inbounds %struct.HashValue, ptr %27, i32 0, i32 1
  store i32 %26, ptr %28, align 4
  br label %29

29:                                               ; preds = %23, %19
  %30 = getelementptr inbounds %class.DataHash, ptr %6, i32 0, i32 0
  %31 = load i32, ptr %30, align 8
  %32 = icmp eq i32 %31, 3
  br i1 %32, label %33, label %39

33:                                               ; preds = %29
  %34 = getelementptr inbounds %class.DataHash, ptr %6, i32 0, i32 2
  %35 = load ptr, ptr %34, align 8
  call void @_ZN14blake2sp_stateC2ERS_(ptr noundef nonnull align 8 dereferenceable(3112) %5, ptr noundef nonnull align 8 dereferenceable(3112) %35)
  %36 = load ptr, ptr %4, align 8
  %37 = getelementptr inbounds %struct.HashValue, ptr %36, i32 0, i32 1
  %38 = getelementptr inbounds [32 x i8], ptr %37, i64 0, i64 0
  call void @_Z14blake2sp_finalP14blake2sp_statePh(ptr noundef %5, ptr noundef %38)
  br label %39

39:                                               ; preds = %33, %29
  ret void
}