; Function Attrs: mustprogress uwtable
define void @_ZN8DataHash6ResultEP9HashValue(ptr nocapture noundef nonnull readonly align 8 dereferenceable(16) %0, ptr noundef %1) local_unnamed_addr #8 align 2 {
  %3 = alloca %struct.blake2sp_state, align 8
  %4 = load i32, ptr %0, align 8
  store i32 %4, ptr %1, align 4
  %5 = icmp eq i32 %4, 1
  br i1 %5, label %6, label %10

6:                                                ; preds = %2
  %7 = getelementptr inbounds i8, ptr %0, i64 4
  %8 = load i32, ptr %7, align 4
  %9 = getelementptr inbounds i8, ptr %1, i64 4
  store i32 %8, ptr %9, align 4
  %.pr = load i32, ptr %0, align 8
  br label %10

10:                                               ; preds = %6, %2
  %11 = phi i32 [ %.pr, %6 ], [ %4, %2 ]
  %12 = icmp eq i32 %11, 2
  br i1 %12, label %13, label %18

13:                                               ; preds = %10
  %14 = getelementptr inbounds i8, ptr %0, i64 4
  %15 = load i32, ptr %14, align 4
  %16 = xor i32 %15, -1
  %17 = getelementptr inbounds i8, ptr %1, i64 4
  store i32 %16, ptr %17, align 4
  %.pre = load i32, ptr %0, align 8
  br label %18

18:                                               ; preds = %13, %10
  %19 = phi i32 [ %.pre, %13 ], [ %11, %10 ]
  %20 = icmp eq i32 %19, 3
  br i1 %20, label %21, label %77

21:                                               ; preds = %18
  %22 = getelementptr inbounds i8, ptr %0, i64 8
  %23 = load ptr, ptr %22, align 8
  br label %24

24:                                               ; preds = %_ZN13blake2s_stateC2ERS_.exit.i, %21
  %25 = phi i64 [ 0, %21 ], [ %49, %_ZN13blake2s_stateC2ERS_.exit.i ]
  %26 = getelementptr inbounds %struct.blake2s_state, ptr %3, i64 %25
  %27 = getelementptr inbounds [8 x %struct.blake2s_state], ptr %23, i64 0, i64 %25
  %28 = ptrtoint ptr %26 to i64
  %29 = sub i64 0, %28
  %30 = and i64 %29, 56
  %31 = add i64 %30, %28
  %32 = inttoptr i64 %31 to ptr
  %33 = getelementptr inbounds i8, ptr %26, i64 240
  store ptr %32, ptr %33, align 8
  %34 = getelementptr inbounds i8, ptr %32, i64 128
  %35 = getelementptr inbounds i8, ptr %26, i64 248
  store ptr %34, ptr %35, align 8
  %36 = getelementptr inbounds i8, ptr %32, i64 160
  %37 = getelementptr inbounds i8, ptr %26, i64 256
  store ptr %36, ptr %37, align 8
  %38 = getelementptr inbounds i8, ptr %32, i64 168
  %39 = getelementptr inbounds i8, ptr %26, i64 264
  store ptr %38, ptr %39, align 8
  %.not.i.i.i = icmp eq ptr %26, %27
  br i1 %.not.i.i.i, label %_ZN13blake2s_stateC2ERS_.exit.i, label %40

40:                                               ; preds = %24
  %41 = getelementptr inbounds i8, ptr %27, i64 240
  %42 = load ptr, ptr %41, align 8
  call void @llvm.memcpy.p0.p0.i64(ptr noundef nonnull align 8 dereferenceable(176) %32, ptr noundef nonnull align 1 dereferenceable(176) %42, i64 176, i1 false)
  %43 = getelementptr inbounds i8, ptr %27, i64 272
  %44 = load i64, ptr %43, align 8
  %45 = getelementptr inbounds i8, ptr %26, i64 272
  store i64 %44, ptr %45, align 8
  %46 = getelementptr inbounds i8, ptr %27, i64 280
  %47 = load i8, ptr %46, align 8
  %48 = getelementptr inbounds i8, ptr %26, i64 280
  store i8 %47, ptr %48, align 8
  br label %_ZN13blake2s_stateC2ERS_.exit.i

_ZN13blake2s_stateC2ERS_.exit.i:                  ; preds = %40, %24
  %49 = add nuw nsw i64 %25, 1
  %50 = icmp eq i64 %49, 8
  br i1 %50, label %51, label %24

51:                                               ; preds = %_ZN13blake2s_stateC2ERS_.exit.i
  %52 = getelementptr inbounds i8, ptr %3, i64 2304
  %53 = ptrtoint ptr %52 to i64
  %54 = sub i64 0, %53
  %55 = and i64 %54, 56
  %56 = add i64 %55, %53
  %57 = inttoptr i64 %56 to ptr
  %58 = getelementptr inbounds i8, ptr %3, i64 2544
  store ptr %57, ptr %58, align 8
  %59 = getelementptr inbounds i8, ptr %57, i64 128
  %60 = getelementptr inbounds i8, ptr %3, i64 2552
  store ptr %59, ptr %60, align 8
  %61 = getelementptr inbounds i8, ptr %57, i64 160
  %62 = getelementptr inbounds i8, ptr %3, i64 2560
  store ptr %61, ptr %62, align 8
  %63 = getelementptr inbounds i8, ptr %57, i64 168
  %64 = getelementptr inbounds i8, ptr %3, i64 2568
  store ptr %63, ptr %64, align 8
  %.not.i.i4.i = icmp eq ptr %3, %23
  br i1 %.not.i.i4.i, label %_ZN14blake2sp_stateC2ERS_.exit, label %65

65:                                               ; preds = %51
  %66 = getelementptr inbounds i8, ptr %23, i64 2544
  %67 = load ptr, ptr %66, align 8
  call void @llvm.memcpy.p0.p0.i64(ptr noundef nonnull align 8 dereferenceable(176) %57, ptr noundef nonnull align 1 dereferenceable(176) %67, i64 176, i1 false)
  %68 = getelementptr inbounds i8, ptr %23, i64 2576
  %69 = load i64, ptr %68, align 8
  %70 = getelementptr inbounds i8, ptr %3, i64 2576
  store i64 %69, ptr %70, align 8
  %71 = getelementptr inbounds i8, ptr %23, i64 2584
  %72 = load i8, ptr %71, align 8
  %73 = getelementptr inbounds i8, ptr %3, i64 2584
  store i8 %72, ptr %73, align 8
  br label %_ZN14blake2sp_stateC2ERS_.exit

_ZN14blake2sp_stateC2ERS_.exit:                   ; preds = %51, %65
  %74 = getelementptr inbounds i8, ptr %3, i64 2592
  %75 = getelementptr inbounds i8, ptr %23, i64 2592
  call void @llvm.memcpy.p0.p0.i64(ptr noundef nonnull align 8 dereferenceable(520) %74, ptr noundef nonnull align 8 dereferenceable(520) %75, i64 520, i1 false)
  %76 = getelementptr inbounds i8, ptr %1, i64 4
  call void @_Z14blake2sp_finalP14blake2sp_statePh(ptr noundef nonnull %3, ptr noundef nonnull %76)
  br label %77

77:                                               ; preds = %_ZN14blake2sp_stateC2ERS_.exit, %18
  ret void
}